target datalayout = "e-m:e-p270:32:32-p271:32:32-p272:64:64-i64:64-i128:128-f80:128-n8:16:32:64-S128"
target triple = "x86_64-pc-linux-gnu"

%struct.AVFilterContext = type { ptr, ptr, ptr, ptr, ptr, i32, ptr, ptr, i32, ptr, ptr, i32, i32, ptr, ptr, ptr, ptr, i32, ptr, i32, i32 }
%struct.VAAPIVPPContext = type { ptr, ptr, ptr, i32, i32, i32, ptr, ptr, %struct._VARectangle, i32, i32, i32, [10 x i32], i32, i32, ptr, ptr }
%struct._VARectangle = type { i16, i16, i16, i16 }
%struct.AVFilterLink = type { ptr, ptr, ptr, ptr, i32, i32, i32, i32, %struct.AVRational, i32, i32, i32, %struct.AVChannelLayout, %struct.AVRational, ptr, i32, %struct.AVFilterFormatsConfig, %struct.AVFilterFormatsConfig }
%struct.AVChannelLayout = type { i32, i32, %union.anon.1, ptr }
%union.anon.1 = type { i64 }
%struct.AVRational = type { i32, i32 }
%struct.AVFilterFormatsConfig = type { ptr, ptr, ptr, ptr, ptr }
%struct.TransposeVAAPIContext = type { %struct.VAAPIVPPContext, i32, i32, i32, i32 }
%struct.FilterLink = type { %struct.AVFilterLink, ptr, i64, i64, i32, i32, i64, i64, i64, i64, %struct.AVRational, ptr }

@.str.5 = private unnamed_addr constant [43 x i8] c"w:%d h:%d -> w:%d h:%d (passthrough mode)\0A\00", align 1
@.str.6 = private unnamed_addr constant [49 x i8] c"swap width and height for clock/cclock rotation\0A\00", align 1

; Function Attrs: inlinehint nounwind uwtable
define internal ptr @ff_filter_link(ptr noundef %0) #4 {
  %2 = alloca ptr, align 8
  store ptr %0, ptr %2, align 8, !tbaa !32
  %3 = load ptr, ptr %2, align 8, !tbaa !32
  ret ptr %3
}

; Function Attrs: nounwind uwtable
define internal i32 @transpose_vaapi_vpp_config_output(ptr noundef %0) #2 {
  %2 = alloca i32, align 4
  %3 = alloca ptr, align 8
  %4 = alloca ptr, align 8
  %5 = alloca ptr, align 8
  %6 = alloca ptr, align 8
  %7 = alloca ptr, align 8
  %8 = alloca ptr, align 8
  %9 = alloca ptr, align 8
  %10 = alloca i32, align 4
  store ptr %0, ptr %3, align 8, !tbaa !32
  call void @llvm.lifetime.start.p0(i64 8, ptr %4) #6
  %11 = load ptr, ptr %3, align 8, !tbaa !32
  %12 = call ptr @ff_filter_link(ptr noundef %11)
  store ptr %12, ptr %4, align 8, !tbaa !72
  call void @llvm.lifetime.start.p0(i64 8, ptr %5) #6
  %13 = load ptr, ptr %3, align 8, !tbaa !32
  %14 = getelementptr inbounds nuw %struct.AVFilterLink, ptr %13, i32 0, i32 0
  %15 = load ptr, ptr %14, align 8, !tbaa !74
  store ptr %15, ptr %5, align 8, !tbaa !4
  call void @llvm.lifetime.start.p0(i64 8, ptr %6) #6
  %16 = load ptr, ptr %5, align 8, !tbaa !4
  %17 = getelementptr inbounds nuw %struct.AVFilterContext, ptr %16, i32 0, i32 9
  %18 = load ptr, ptr %17, align 8, !tbaa !9
  store ptr %18, ptr %6, align 8, !tbaa !22
  call void @llvm.lifetime.start.p0(i64 8, ptr %7) #6
  %19 = load ptr, ptr %5, align 8, !tbaa !4
  %20 = getelementptr inbounds nuw %struct.AVFilterContext, ptr %19, i32 0, i32 9
  %21 = load ptr, ptr %20, align 8, !tbaa !9
  store ptr %21, ptr %7, align 8, !tbaa !43
  call void @llvm.lifetime.start.p0(i64 8, ptr %8) #6
  %22 = load ptr, ptr %5, align 8, !tbaa !4
  %23 = getelementptr inbounds nuw %struct.AVFilterContext, ptr %22, i32 0, i32 4
  %24 = load ptr, ptr %23, align 8, !tbaa !75
  %25 = getelementptr inbounds ptr, ptr %24, i64 0
  %26 = load ptr, ptr %25, align 8, !tbaa !32
  store ptr %26, ptr %8, align 8, !tbaa !32
  call void @llvm.lifetime.start.p0(i64 8, ptr %9) #6
  %27 = load ptr, ptr %8, align 8, !tbaa !32
  %28 = call ptr @ff_filter_link(ptr noundef %27)
  store ptr %28, ptr %9, align 8, !tbaa !72
  %29 = load ptr, ptr %8, align 8, !tbaa !32
  %30 = getelementptr inbounds nuw %struct.AVFilterLink, ptr %29, i32 0, i32 6
  %31 = load i32, ptr %30, align 8, !tbaa !76
  %32 = load ptr, ptr %8, align 8, !tbaa !32
  %33 = getelementptr inbounds nuw %struct.AVFilterLink, ptr %32, i32 0, i32 7
  %34 = load i32, ptr %33, align 4, !tbaa !77
  %35 = icmp sge i32 %31, %34
  br i1 %35, label %36, label %41

36:                                               ; preds = %1
  %37 = load ptr, ptr %7, align 8, !tbaa !43
  %38 = getelementptr inbounds nuw %struct.TransposeVAAPIContext, ptr %37, i32 0, i32 1
  %39 = load i32, ptr %38, align 8, !tbaa !45
  %40 = icmp eq i32 %39, 1
  br i1 %40, label %54, label %41

41:                                               ; preds = %36, %1
  %42 = load ptr, ptr %8, align 8, !tbaa !32
  %43 = getelementptr inbounds nuw %struct.AVFilterLink, ptr %42, i32 0, i32 6
  %44 = load i32, ptr %43, align 8, !tbaa !76
  %45 = load ptr, ptr %8, align 8, !tbaa !32
  %46 = getelementptr inbounds nuw %struct.AVFilterLink, ptr %45, i32 0, i32 7
  %47 = load i32, ptr %46, align 4, !tbaa !77
  %48 = icmp sle i32 %44, %47
  br i1 %48, label %49, label %80

49:                                               ; preds = %41
  %50 = load ptr, ptr %7, align 8, !tbaa !43
  %51 = getelementptr inbounds nuw %struct.TransposeVAAPIContext, ptr %50, i32 0, i32 1
  %52 = load i32, ptr %51, align 8, !tbaa !45
  %53 = icmp eq i32 %52, 2
  br i1 %53, label %54, label %80

54:                                               ; preds = %49, %36
  %55 = load ptr, ptr %9, align 8, !tbaa !72
  %56 = getelementptr inbounds nuw %struct.FilterLink, ptr %55, i32 0, i32 11
  %57 = load ptr, ptr %56, align 8, !tbaa !78
  %58 = call ptr @av_buffer_ref(ptr noundef %57)
  %59 = load ptr, ptr %4, align 8, !tbaa !72
  %60 = getelementptr inbounds nuw %struct.FilterLink, ptr %59, i32 0, i32 11
  store ptr %58, ptr %60, align 8, !tbaa !78
  %61 = load ptr, ptr %4, align 8, !tbaa !72
  %62 = getelementptr inbounds nuw %struct.FilterLink, ptr %61, i32 0, i32 11
  %63 = load ptr, ptr %62, align 8, !tbaa !78
  %64 = icmp ne ptr %63, null
  br i1 %64, label %66, label %65

65:                                               ; preds = %54
  store i32 -12, ptr %2, align 4
  store i32 1, ptr %10, align 4
  br label %110

66:                                               ; preds = %54
  %67 = load ptr, ptr %5, align 8, !tbaa !4
  %68 = load ptr, ptr %8, align 8, !tbaa !32
  %69 = getelementptr inbounds nuw %struct.AVFilterLink, ptr %68, i32 0, i32 6
  %70 = load i32, ptr %69, align 8, !tbaa !76
  %71 = load ptr, ptr %8, align 8, !tbaa !32
  %72 = getelementptr inbounds nuw %struct.AVFilterLink, ptr %71, i32 0, i32 7
  %73 = load i32, ptr %72, align 4, !tbaa !77
  %74 = load ptr, ptr %8, align 8, !tbaa !32
  %75 = getelementptr inbounds nuw %struct.AVFilterLink, ptr %74, i32 0, i32 6
  %76 = load i32, ptr %75, align 8, !tbaa !76
  %77 = load ptr, ptr %8, align 8, !tbaa !32
  %78 = getelementptr inbounds nuw %struct.AVFilterLink, ptr %77, i32 0, i32 7
  %79 = load i32, ptr %78, align 4, !tbaa !77
  call void (ptr, i32, ptr, ...) @av_log(ptr noundef %67, i32 noundef 40, ptr noundef @.str.5, i32 noundef %70, i32 noundef %73, i32 noundef %76, i32 noundef %79)
  store i32 0, ptr %2, align 4
  store i32 1, ptr %10, align 4
  br label %110

80:                                               ; preds = %49, %41
  %81 = load ptr, ptr %7, align 8, !tbaa !43
  %82 = getelementptr inbounds nuw %struct.TransposeVAAPIContext, ptr %81, i32 0, i32 1
  store i32 0, ptr %82, align 8, !tbaa !45
  %83 = load ptr, ptr %7, align 8, !tbaa !43
  %84 = getelementptr inbounds nuw %struct.TransposeVAAPIContext, ptr %83, i32 0, i32 2
  %85 = load i32, ptr %84, align 4, !tbaa !80
  switch i32 %85, label %106 [
    i32 0, label %86
    i32 2, label %86
    i32 1, label %86
    i32 3, label %86
  ]

86:                                               ; preds = %80, %80, %80, %80
  %87 = load ptr, ptr %5, align 8, !tbaa !4
  %88 = getelementptr inbounds nuw %struct.AVFilterContext, ptr %87, i32 0, i32 4
  %89 = load ptr, ptr %88, align 8, !tbaa !75
  %90 = getelementptr inbounds ptr, ptr %89, i64 0
  %91 = load ptr, ptr %90, align 8, !tbaa !32
  %92 = getelementptr inbounds nuw %struct.AVFilterLink, ptr %91, i32 0, i32 7
  %93 = load i32, ptr %92, align 4, !tbaa !77
  %94 = load ptr, ptr %6, align 8, !tbaa !22
  %95 = getelementptr inbounds nuw %struct.VAAPIVPPContext, ptr %94, i32 0, i32 10
  store i32 %93, ptr %95, align 4, !tbaa !60
  %96 = load ptr, ptr %5, align 8, !tbaa !4
  %97 = getelementptr inbounds nuw %struct.AVFilterContext, ptr %96, i32 0, i32 4
  %98 = load ptr, ptr %97, align 8, !tbaa !75
  %99 = getelementptr inbounds ptr, ptr %98, i64 0
  %100 = load ptr, ptr %99, align 8, !tbaa !32
  %101 = getelementptr inbounds nuw %struct.AVFilterLink, ptr %100, i32 0, i32 6
  %102 = load i32, ptr %101, align 8, !tbaa !76
  %103 = load ptr, ptr %6, align 8, !tbaa !22
  %104 = getelementptr inbounds nuw %struct.VAAPIVPPContext, ptr %103, i32 0, i32 11
  store i32 %102, ptr %104, align 8, !tbaa !61
  %105 = load ptr, ptr %5, align 8, !tbaa !4
  call void (ptr, i32, ptr, ...) @av_log(ptr noundef %105, i32 noundef 48, ptr noundef @.str.6)
  br label %107

106:                                              ; preds = %80
  br label %107

107:                                              ; preds = %106, %86
  %108 = load ptr, ptr %3, align 8, !tbaa !32
  %109 = call i32 @ff_vaapi_vpp_config_output(ptr noundef %108)
  store i32 %109, ptr %2, align 4
  store i32 1, ptr %10, align 4
  br label %110

110:                                              ; preds = %107, %66, %65
  call void @llvm.lifetime.end.p0(i64 8, ptr %9) #6
  call void @llvm.lifetime.end.p0(i64 8, ptr %8) #6
  call void @llvm.lifetime.end.p0(i64 8, ptr %7) #6
  call void @llvm.lifetime.end.p0(i64 8, ptr %6) #6
  call void @llvm.lifetime.end.p0(i64 8, ptr %5) #6
  call void @llvm.lifetime.end.p0(i64 8, ptr %4) #6
  %111 = load i32, ptr %2, align 4
  ret i32 %111
}