; Function Attrs: nounwind uwtable
define internal i32 @transpose_vaapi_vpp_config_output(ptr noundef %0) #2 {
  %2 = load ptr, ptr %0, align 8, !tbaa !66
  %3 = getelementptr inbounds nuw i8, ptr %2, i64 72
  %4 = load ptr, ptr %3, align 8, !tbaa !4
  %5 = getelementptr inbounds nuw i8, ptr %2, i64 32
  %6 = load ptr, ptr %5, align 8, !tbaa !67
  %7 = load ptr, ptr %6, align 8, !tbaa !42
  %8 = getelementptr inbounds nuw i8, ptr %7, i64 40
  %9 = load i32, ptr %8, align 8, !tbaa !68
  %10 = getelementptr inbounds nuw i8, ptr %7, i64 44
  %11 = load i32, ptr %10, align 4, !tbaa !69
  %.not = icmp slt i32 %9, %11
  br i1 %.not, label %16, label %12

12:                                               ; preds = %1
  %13 = getelementptr inbounds nuw i8, ptr %4, i64 144
  %14 = load i32, ptr %13, align 8, !tbaa !37
  %15 = icmp eq i32 %14, 1
  br i1 %15, label %21, label %16

16:                                               ; preds = %12, %1
  %.not28 = icmp sgt i32 %9, %11
  br i1 %.not28, label %29, label %17

17:                                               ; preds = %16
  %18 = getelementptr inbounds nuw i8, ptr %4, i64 144
  %19 = load i32, ptr %18, align 8, !tbaa !37
  %20 = icmp eq i32 %19, 2
  br i1 %20, label %21, label %29

21:                                               ; preds = %17, %12
  %22 = getelementptr inbounds nuw i8, ptr %7, i64 272
  %23 = load ptr, ptr %22, align 8, !tbaa !70
  %24 = tail call ptr @av_buffer_ref(ptr noundef %23) #5
  %25 = getelementptr inbounds nuw i8, ptr %0, i64 272
  store ptr %24, ptr %25, align 8, !tbaa !70
  %.not29 = icmp eq ptr %24, null
  br i1 %.not29, label %38, label %26

26:                                               ; preds = %21
  %27 = load i32, ptr %8, align 8, !tbaa !68
  %28 = load i32, ptr %10, align 4, !tbaa !69
  tail call void (ptr, i32, ptr, ...) @av_log(ptr noundef nonnull %2, i32 noundef 40, ptr noundef nonnull @.str.5, i32 noundef %27, i32 noundef %28, i32 noundef %27, i32 noundef %28) #5
  br label %38

29:                                               ; preds = %17, %16
  %30 = getelementptr inbounds nuw i8, ptr %4, i64 144
  store i32 0, ptr %30, align 8, !tbaa !37
  %31 = getelementptr inbounds nuw i8, ptr %4, i64 148
  %32 = load i32, ptr %31, align 4, !tbaa !72
  %switch = icmp ult i32 %32, 4
  br i1 %switch, label %33, label %36

33:                                               ; preds = %29
  %34 = getelementptr inbounds nuw i8, ptr %4, i64 68
  store i32 %11, ptr %34, align 4, !tbaa !54
  %35 = getelementptr inbounds nuw i8, ptr %4, i64 72
  store i32 %9, ptr %35, align 8, !tbaa !55
  tail call void (ptr, i32, ptr, ...) @av_log(ptr noundef nonnull %2, i32 noundef 48, ptr noundef nonnull @.str.6) #5
  br label %36

36:                                               ; preds = %29, %33
  %37 = tail call i32 @ff_vaapi_vpp_config_output(ptr noundef nonnull %0) #5
  br label %38

38:                                               ; preds = %21, %36, %26
  %.0 = phi i32 [ 0, %26 ], [ %37, %36 ], [ -12, %21 ]
  ret i32 %.0
}